; Function Attrs: nofree norecurse nosync nounwind memory(argmem: readwrite) uwtable
define internal void @put_vp8_pixels16_c(ptr noundef writeonly captures(none) %0, i64 noundef %1, ptr noundef readonly captures(none) %2, i64 noundef %3, i32 noundef %4, i32 %5, i32 %6) #1 {
  %8 = icmp sgt i32 %4, 0
  br i1 %8, label %.lr.ph, label %._crit_edge

.lr.ph:                                           ; preds = %7, %.lr.ph
  %.012 = phi i32 [ %9, %.lr.ph ], [ 0, %7 ]
  %.0811 = phi ptr [ %10, %.lr.ph ], [ %0, %7 ]
  %.0910 = phi ptr [ %11, %.lr.ph ], [ %2, %7 ]
  tail call void @llvm.memcpy.p0.p0.i64(ptr noundef nonnull align 1 dereferenceable(16) %.0811, ptr noundef nonnull align 1 dereferenceable(16) %.0910, i64 16, i1 false)
  %9 = add nuw nsw i32 %.012, 1
  %10 = getelementptr inbounds i8, ptr %.0811, i64 %1
  %11 = getelementptr inbounds i8, ptr %.0910, i64 %3
  %exitcond.not = icmp eq i32 %9, %4
  br i1 %exitcond.not, label %._crit_edge, label %.lr.ph, !llvm.loop !8

._crit_edge:                                      ; preds = %.lr.ph, %7
  ret void
}